; Function Attrs: nounwind uwtable
define noalias ptr @H5Pget_class_name(i64 noundef %0) local_unnamed_addr #0 {
  %2 = load i8, ptr @H5_libinit_g, align 1
  %3 = trunc i8 %2 to i1
  %4 = load i8, ptr @H5_libterm_g, align 1
  %5 = trunc i8 %4 to i1
  %6 = select i1 %3, i1 true, i1 %5
  br i1 %6, label %14, label %7

7:                                                ; preds = %1
  %8 = tail call i32 @H5_init_library() #2
  %9 = icmp slt i32 %8, 0
  br i1 %9, label %10, label %14

10:                                               ; preds = %7
  %11 = load i64, ptr @H5E_FUNC_g, align 8
  %12 = load i64, ptr @H5E_CANTINIT_g, align 8
  %13 = tail call i32 (ptr, ptr, i32, i64, i64, ptr, ...) @H5E_printf_stack(ptr noundef nonnull @.str, ptr noundef nonnull @__func__.H5Pget_class_name, i32 noundef 1499, i64 noundef %11, i64 noundef %12, ptr noundef nonnull @.str.1) #2
  br label %.thread20

14:                                               ; preds = %7, %1
  %15 = tail call i32 @H5CX_push() #2
  %16 = icmp slt i32 %15, 0
  br i1 %16, label %17, label %21

17:                                               ; preds = %14
  %18 = load i64, ptr @H5E_FUNC_g, align 8
  %19 = load i64, ptr @H5E_CANTSET_g, align 8
  %20 = tail call i32 (ptr, ptr, i32, i64, i64, ptr, ...) @H5E_printf_stack(ptr noundef nonnull @.str, ptr noundef nonnull @__func__.H5Pget_class_name, i32 noundef 1499, i64 noundef %18, i64 noundef %19, ptr noundef nonnull @.str.2) #2
  br label %.thread20

21:                                               ; preds = %14
  %22 = tail call i32 @H5E_clear_stack() #2
  %23 = tail call ptr @H5I_object_verify(i64 noundef %0, i32 noundef 10) #2
  %24 = icmp eq ptr %23, null
  br i1 %24, label %25, label %29

25:                                               ; preds = %21
  %26 = load i64, ptr @H5E_ARGS_g, align 8
  %27 = load i64, ptr @H5E_BADTYPE_g, align 8
  %28 = tail call i32 (ptr, ptr, i32, i64, i64, ptr, ...) @H5E_printf_stack(ptr noundef nonnull @.str, ptr noundef nonnull @__func__.H5Pget_class_name, i32 noundef 1503, i64 noundef %26, i64 noundef %27, ptr noundef nonnull @.str.25) #2
  br label %.thread26

29:                                               ; preds = %21
  %30 = tail call noalias ptr @H5P_get_class_name(ptr noundef nonnull %23) #2
  %31 = icmp eq ptr %30, null
  br i1 %31, label %32, label %37

32:                                               ; preds = %29
  %33 = load i64, ptr @H5E_PLIST_g, align 8
  %34 = load i64, ptr @H5E_NOTFOUND_g, align 8
  %35 = tail call i32 (ptr, ptr, i32, i64, i64, ptr, ...) @H5E_printf_stack(ptr noundef nonnull @.str, ptr noundef nonnull @__func__.H5Pget_class_name, i32 noundef 1507, i64 noundef %33, i64 noundef %34, ptr noundef nonnull @.str.53) #2
  br label %.thread26

.thread26:                                        ; preds = %32, %25
  %36 = tail call i32 @H5CX_pop(i1 noundef zeroext true) #2
  br label %.thread20

37:                                               ; preds = %29
  %38 = tail call i32 @H5CX_pop(i1 noundef zeroext true) #2
  br label %40

.thread20:                                        ; preds = %17, %10, %.thread26
  %39 = tail call i32 @H5E_dump_api_stack() #2
  br label %40

40:                                               ; preds = %37, %.thread20
  %.091523 = phi ptr [ null, %.thread20 ], [ %30, %37 ]
  ret ptr %.091523
}